target datalayout = "e-m:e-p270:32:32-p271:32:32-p272:64:64-i64:64-i128:128-f80:128-n8:16:32:64-S128"
target triple = "x86_64-pc-linux-gnu"

%struct.H5VL_object_get_args_t = type { i32, %union.anon }
%union.anon = type { %struct.anon.0 }
%struct.anon.0 = type { i64, ptr, ptr }
%struct.H5VL_loc_params_t = type { i32, i32, %union.anon.3 }
%union.anon.3 = type { %struct.H5VL_loc_by_idx }
%struct.H5VL_loc_by_idx = type { ptr, i32, i32, i64, i64 }
%struct.H5O_token_t = type { [16 x i8] }
%struct.H5VL_loc_by_token = type { ptr }

@H5_libinit_g = external global i8, align 1
@H5_libterm_g = external global i8, align 1
@.str = private unnamed_addr constant [103 x i8] c"generated/home/dtcxzyw/WorkSpace/Projects/compilers/llvm-opt-benchmark/bench/hdf5/hdf5/src/H5Rdeprec.c\00", align 1
@H5E_FUNC_g = external global i64, align 8
@H5E_CANTINIT_g = external global i64, align 8
@.str.1 = private unnamed_addr constant [30 x i8] c"library initialization failed\00", align 1
@H5E_CANTSET_g = external global i64, align 8
@.str.2 = private unnamed_addr constant [22 x i8] c"can't set API context\00", align 1
@H5E_ARGS_g = external global i64, align 8
@H5E_BADVALUE_g = external global i64, align 8
@.str.3 = private unnamed_addr constant [26 x i8] c"invalid reference pointer\00", align 1
@.str.4 = private unnamed_addr constant [23 x i8] c"invalid reference type\00", align 1
@H5E_BADTYPE_g = external global i64, align 8
@.str.5 = private unnamed_addr constant [28 x i8] c"invalid location identifier\00", align 1
@H5E_REFERENCE_g = external global i64, align 8
@H5E_CANTGET_g = external global i64, align 8
@H5E_CANTDECODE_g = external global i64, align 8
@.str.8 = private unnamed_addr constant [27 x i8] c"unable to get object token\00", align 1
@H5P_LST_DATASET_XFER_ID_g = external global i64, align 8
@.str.28 = private unnamed_addr constant [24 x i8] c"invalid file identifier\00", align 1
@__func__.H5Rget_name = private unnamed_addr constant [12 x i8] c"H5Rget_name\00", align 1
@.str.33 = private unnamed_addr constant [27 x i8] c"can't retrieve object name\00", align 1

; Function Attrs: nounwind uwtable
define i64 @H5Rget_name(i64 noundef %0, i32 noundef %1, ptr noundef %2, ptr noundef %3, i64 noundef %4) #0 {
  %6 = alloca i64, align 8
  %7 = alloca i32, align 4
  %8 = alloca ptr, align 8
  %9 = alloca ptr, align 8
  %10 = alloca i64, align 8
  %11 = alloca ptr, align 8
  %12 = alloca i32, align 4
  %13 = alloca %struct.H5VL_object_get_args_t, align 8
  %14 = alloca %struct.H5VL_loc_params_t, align 8
  %15 = alloca %struct.H5O_token_t, align 1
  %16 = alloca ptr, align 8
  %17 = alloca i64, align 8
  %18 = alloca i64, align 8
  %19 = alloca i8, align 1
  %20 = alloca i8, align 1
  store i64 %0, ptr %6, align 8
  store i32 %1, ptr %7, align 4
  store ptr %2, ptr %8, align 8
  store ptr %3, ptr %9, align 8
  store i64 %4, ptr %10, align 8
  store ptr null, ptr %11, align 8
  store i32 -1, ptr %12, align 4
  call void @llvm.memset.p0.i64(ptr align 1 %15, i8 0, i64 16, i1 false)
  %21 = load ptr, ptr %8, align 8
  store ptr %21, ptr %16, align 8
  store i64 0, ptr %17, align 8
  store i64 -1, ptr %18, align 8
  store i8 0, ptr %19, align 1
  store i8 0, ptr %20, align 1
  %22 = load i8, ptr @H5_libinit_g, align 1
  %23 = trunc i8 %22 to i1
  br i1 %23, label %28, label %24

24:                                               ; preds = %5
  %25 = load i8, ptr @H5_libterm_g, align 1
  %26 = trunc i8 %25 to i1
  %27 = xor i1 %26, true
  br label %28

28:                                               ; preds = %24, %5
  %29 = phi i1 [ false, %5 ], [ %27, %24 ]
  %30 = xor i1 %29, true
  %31 = xor i1 %30, true
  %32 = zext i1 %31 to i32
  %33 = sext i32 %32 to i64
  %34 = icmp ne i64 %33, 0
  br i1 %34, label %35, label %59

35:                                               ; preds = %28
  %36 = call i32 @H5_init_library()
  %37 = icmp slt i32 %36, 0
  %38 = xor i1 %37, true
  %39 = xor i1 %38, true
  %40 = zext i1 %39 to i32
  %41 = sext i32 %40 to i64
  %42 = icmp ne i64 %41, 0
  br i1 %42, label %43, label %58

43:                                               ; preds = %35
  br label %44

44:                                               ; preds = %43
  br label %45

45:                                               ; preds = %44
  br label %46

46:                                               ; preds = %45
  %47 = load i64, ptr @H5E_FUNC_g, align 8
  %48 = load i64, ptr @H5E_CANTINIT_g, align 8
  %49 = call i32 (ptr, ptr, i32, i64, i64, ptr, ...) @H5E_printf_stack(ptr noundef @.str, ptr noundef @__func__.H5Rget_name, i32 noundef 761, i64 noundef %47, i64 noundef %48, ptr noundef @.str.1)
  br label %50

50:                                               ; preds = %46
  store i8 1, ptr %20, align 1
  %51 = load i8, ptr %20, align 1
  %52 = trunc i8 %51 to i1
  %53 = zext i1 %52 to i8
  store i8 %53, ptr %20, align 1
  br label %54

54:                                               ; preds = %50
  br label %55

55:                                               ; preds = %54
  store i64 -1, ptr %18, align 8
  br label %219

56:                                               ; No predecessors!
  br label %57

57:                                               ; preds = %56
  br label %58

58:                                               ; preds = %57, %35
  br label %59

59:                                               ; preds = %58, %28
  %60 = call i32 @H5CX_push()
  %61 = icmp slt i32 %60, 0
  %62 = xor i1 %61, true
  %63 = xor i1 %62, true
  %64 = zext i1 %63 to i32
  %65 = sext i32 %64 to i64
  %66 = icmp ne i64 %65, 0
  br i1 %66, label %67, label %82

67:                                               ; preds = %59
  br label %68

68:                                               ; preds = %67
  br label %69

69:                                               ; preds = %68
  br label %70

70:                                               ; preds = %69
  %71 = load i64, ptr @H5E_FUNC_g, align 8
  %72 = load i64, ptr @H5E_CANTSET_g, align 8
  %73 = call i32 (ptr, ptr, i32, i64, i64, ptr, ...) @H5E_printf_stack(ptr noundef @.str, ptr noundef @__func__.H5Rget_name, i32 noundef 761, i64 noundef %71, i64 noundef %72, ptr noundef @.str.2)
  br label %74

74:                                               ; preds = %70
  store i8 1, ptr %20, align 1
  %75 = load i8, ptr %20, align 1
  %76 = trunc i8 %75 to i1
  %77 = zext i1 %76 to i8
  store i8 %77, ptr %20, align 1
  br label %78

78:                                               ; preds = %74
  br label %79

79:                                               ; preds = %78
  store i64 -1, ptr %18, align 8
  br label %219

80:                                               ; No predecessors!
  br label %81

81:                                               ; preds = %80
  br label %83

82:                                               ; preds = %59
  store i8 1, ptr %19, align 1
  br label %83

83:                                               ; preds = %82, %81
  %84 = call i32 @H5E_clear_stack()
  %85 = load ptr, ptr %16, align 8
  %86 = icmp eq ptr %85, null
  br i1 %86, label %87, label %102

87:                                               ; preds = %83
  br label %88

88:                                               ; preds = %87
  br label %89

89:                                               ; preds = %88
  br label %90

90:                                               ; preds = %89
  %91 = load i64, ptr @H5E_ARGS_g, align 8
  %92 = load i64, ptr @H5E_BADVALUE_g, align 8
  %93 = call i32 (ptr, ptr, i32, i64, i64, ptr, ...) @H5E_printf_stack(ptr noundef @.str, ptr noundef @__func__.H5Rget_name, i32 noundef 765, i64 noundef %91, i64 noundef %92, ptr noundef @.str.3)
  br label %94

94:                                               ; preds = %90
  store i8 1, ptr %20, align 1
  %95 = load i8, ptr %20, align 1
  %96 = trunc i8 %95 to i1
  %97 = zext i1 %96 to i8
  store i8 %97, ptr %20, align 1
  br label %98

98:                                               ; preds = %94
  br label %99

99:                                               ; preds = %98
  store i64 -1, ptr %18, align 8
  br label %219

100:                                              ; No predecessors!
  br label %101

101:                                              ; preds = %100
  br label %102

102:                                              ; preds = %101, %83
  %103 = load i32, ptr %7, align 4
  %104 = icmp ne i32 %103, 0
  br i1 %104, label %105, label %123

105:                                              ; preds = %102
  %106 = load i32, ptr %7, align 4
  %107 = icmp ne i32 %106, 1
  br i1 %107, label %108, label %123

108:                                              ; preds = %105
  br label %109

109:                                              ; preds = %108
  br label %110

110:                                              ; preds = %109
  br label %111

111:                                              ; preds = %110
  %112 = load i64, ptr @H5E_ARGS_g, align 8
  %113 = load i64, ptr @H5E_BADVALUE_g, align 8
  %114 = call i32 (ptr, ptr, i32, i64, i64, ptr, ...) @H5E_printf_stack(ptr noundef @.str, ptr noundef @__func__.H5Rget_name, i32 noundef 767, i64 noundef %112, i64 noundef %113, ptr noundef @.str.4)
  br label %115

115:                                              ; preds = %111
  store i8 1, ptr %20, align 1
  %116 = load i8, ptr %20, align 1
  %117 = trunc i8 %116 to i1
  %118 = zext i1 %117 to i8
  store i8 %118, ptr %20, align 1
  br label %119

119:                                              ; preds = %115
  br label %120

120:                                              ; preds = %119
  store i64 -1, ptr %18, align 8
  br label %219

121:                                              ; No predecessors!
  br label %122

122:                                              ; preds = %121
  br label %123

123:                                              ; preds = %122, %105, %102
  %124 = load i64, ptr %6, align 8
  %125 = call ptr @H5VL_vol_object(i64 noundef %124)
  store ptr %125, ptr %11, align 8
  %126 = icmp eq ptr null, %125
  br i1 %126, label %127, label %142

127:                                              ; preds = %123
  br label %128

128:                                              ; preds = %127
  br label %129

129:                                              ; preds = %128
  br label %130

130:                                              ; preds = %129
  %131 = load i64, ptr @H5E_ARGS_g, align 8
  %132 = load i64, ptr @H5E_BADTYPE_g, align 8
  %133 = call i32 (ptr, ptr, i32, i64, i64, ptr, ...) @H5E_printf_stack(ptr noundef @.str, ptr noundef @__func__.H5Rget_name, i32 noundef 771, i64 noundef %131, i64 noundef %132, ptr noundef @.str.28)
  br label %134

134:                                              ; preds = %130
  store i8 1, ptr %20, align 1
  %135 = load i8, ptr %20, align 1
  %136 = trunc i8 %135 to i1
  %137 = zext i1 %136 to i8
  store i8 %137, ptr %20, align 1
  br label %138

138:                                              ; preds = %134
  br label %139

139:                                              ; preds = %138
  store i64 -1, ptr %18, align 8
  br label %219

140:                                              ; No predecessors!
  br label %141

141:                                              ; preds = %140
  br label %142

142:                                              ; preds = %141, %123
  %143 = load i64, ptr %6, align 8
  %144 = call i32 @H5I_get_type(i64 noundef %143)
  store i32 %144, ptr %12, align 4
  %145 = icmp slt i32 %144, 0
  br i1 %145, label %146, label %161

146:                                              ; preds = %142
  br label %147

147:                                              ; preds = %146
  br label %148

148:                                              ; preds = %147
  br label %149

149:                                              ; preds = %148
  %150 = load i64, ptr @H5E_ARGS_g, align 8
  %151 = load i64, ptr @H5E_BADTYPE_g, align 8
  %152 = call i32 (ptr, ptr, i32, i64, i64, ptr, ...) @H5E_printf_stack(ptr noundef @.str, ptr noundef @__func__.H5Rget_name, i32 noundef 775, i64 noundef %150, i64 noundef %151, ptr noundef @.str.5)
  br label %153

153:                                              ; preds = %149
  store i8 1, ptr %20, align 1
  %154 = load i8, ptr %20, align 1
  %155 = trunc i8 %154 to i1
  %156 = zext i1 %155 to i8
  store i8 %156, ptr %20, align 1
  br label %157

157:                                              ; preds = %153
  br label %158

158:                                              ; preds = %157
  store i64 -1, ptr %18, align 8
  br label %219

159:                                              ; No predecessors!
  br label %160

160:                                              ; preds = %159
  br label %161

161:                                              ; preds = %160, %142
  %162 = load ptr, ptr %11, align 8
  %163 = load i32, ptr %12, align 4
  %164 = load i32, ptr %7, align 4
  %165 = load ptr, ptr %16, align 8
  %166 = call i32 @H5R__decode_token_compat(ptr noundef %162, i32 noundef %163, i32 noundef %164, ptr noundef %165, ptr noundef %15)
  %167 = icmp slt i32 %166, 0
  br i1 %167, label %168, label %183

168:                                              ; preds = %161
  br label %169

169:                                              ; preds = %168
  br label %170

170:                                              ; preds = %169
  br label %171

171:                                              ; preds = %170
  %172 = load i64, ptr @H5E_REFERENCE_g, align 8
  %173 = load i64, ptr @H5E_CANTDECODE_g, align 8
  %174 = call i32 (ptr, ptr, i32, i64, i64, ptr, ...) @H5E_printf_stack(ptr noundef @.str, ptr noundef @__func__.H5Rget_name, i32 noundef 779, i64 noundef %172, i64 noundef %173, ptr noundef @.str.8)
  br label %175

175:                                              ; preds = %171
  store i8 1, ptr %20, align 1
  %176 = load i8, ptr %20, align 1
  %177 = trunc i8 %176 to i1
  %178 = zext i1 %177 to i8
  store i8 %178, ptr %20, align 1
  br label %179

179:                                              ; preds = %175
  br label %180

180:                                              ; preds = %179
  store i64 -1, ptr %18, align 8
  br label %219

181:                                              ; No predecessors!
  br label %182

182:                                              ; preds = %181
  br label %183

183:                                              ; preds = %182, %161
  %184 = getelementptr inbounds %struct.H5VL_loc_params_t, ptr %14, i32 0, i32 1
  store i32 3, ptr %184, align 4
  %185 = getelementptr inbounds %struct.H5VL_loc_params_t, ptr %14, i32 0, i32 2
  %186 = getelementptr inbounds %struct.H5VL_loc_by_token, ptr %185, i32 0, i32 0
  store ptr %15, ptr %186, align 8
  %187 = load i32, ptr %12, align 4
  %188 = getelementptr inbounds %struct.H5VL_loc_params_t, ptr %14, i32 0, i32 0
  store i32 %187, ptr %188, align 8
  %189 = getelementptr inbounds %struct.H5VL_object_get_args_t, ptr %13, i32 0, i32 0
  store i32 1, ptr %189, align 8
  %190 = load i64, ptr %10, align 8
  %191 = getelementptr inbounds %struct.H5VL_object_get_args_t, ptr %13, i32 0, i32 1
  %192 = getelementptr inbounds %struct.anon.0, ptr %191, i32 0, i32 0
  store i64 %190, ptr %192, align 8
  %193 = load ptr, ptr %9, align 8
  %194 = getelementptr inbounds %struct.H5VL_object_get_args_t, ptr %13, i32 0, i32 1
  %195 = getelementptr inbounds %struct.anon.0, ptr %194, i32 0, i32 1
  store ptr %193, ptr %195, align 8
  %196 = getelementptr inbounds %struct.H5VL_object_get_args_t, ptr %13, i32 0, i32 1
  %197 = getelementptr inbounds %struct.anon.0, ptr %196, i32 0, i32 2
  store ptr %17, ptr %197, align 8
  %198 = load ptr, ptr %11, align 8
  %199 = load i64, ptr @H5P_LST_DATASET_XFER_ID_g, align 8
  %200 = call i32 @H5VL_object_get(ptr noundef %198, ptr noundef %14, ptr noundef %13, i64 noundef %199, ptr noundef null)
  %201 = icmp slt i32 %200, 0
  br i1 %201, label %202, label %217

202:                                              ; preds = %183
  br label %203

203:                                              ; preds = %202
  br label %204

204:                                              ; preds = %203
  br label %205

205:                                              ; preds = %204
  %206 = load i64, ptr @H5E_REFERENCE_g, align 8
  %207 = load i64, ptr @H5E_CANTGET_g, align 8
  %208 = call i32 (ptr, ptr, i32, i64, i64, ptr, ...) @H5E_printf_stack(ptr noundef @.str, ptr noundef @__func__.H5Rget_name, i32 noundef 794, i64 noundef %206, i64 noundef %207, ptr noundef @.str.33)
  br label %209

209:                                              ; preds = %205
  store i8 1, ptr %20, align 1
  %210 = load i8, ptr %20, align 1
  %211 = trunc i8 %210 to i1
  %212 = zext i1 %211 to i8
  store i8 %212, ptr %20, align 1
  br label %213

213:                                              ; preds = %209
  br label %214

214:                                              ; preds = %213
  store i64 -1, ptr %18, align 8
  br label %219

215:                                              ; No predecessors!
  br label %216

216:                                              ; preds = %215
  br label %217

217:                                              ; preds = %216, %183
  %218 = load i64, ptr %17, align 8
  store i64 %218, ptr %18, align 8
  br label %219

219:                                              ; preds = %217, %214, %180, %158, %139, %120, %99, %79, %55
  %220 = load i8, ptr %19, align 1
  %221 = trunc i8 %220 to i1
  %222 = xor i1 %221, true
  %223 = xor i1 %222, true
  %224 = zext i1 %223 to i32
  %225 = sext i32 %224 to i64
  %226 = icmp ne i64 %225, 0
  br i1 %226, label %227, label %229

227:                                              ; preds = %219
  %228 = call i32 @H5CX_pop(i1 noundef zeroext true)
  store i8 0, ptr %19, align 1
  br label %229

229:                                              ; preds = %227, %219
  %230 = load i8, ptr %20, align 1
  %231 = trunc i8 %230 to i1
  %232 = xor i1 %231, true
  %233 = xor i1 %232, true
  %234 = zext i1 %233 to i32
  %235 = sext i32 %234 to i64
  %236 = icmp ne i64 %235, 0
  br i1 %236, label %237, label %239

237:                                              ; preds = %229
  %238 = call i32 @H5E_dump_api_stack()
  br label %239

239:                                              ; preds = %237, %229
  %240 = load i64, ptr %18, align 8
  ret i64 %240
}