; Function Attrs: nounwind uwtable
define i64 @H5Rget_name(i64 noundef %0, i32 noundef %1, ptr noundef %2, ptr noundef %3, i64 noundef %4) local_unnamed_addr #0 {
  %6 = alloca %struct.H5VL_object_get_args_t, align 8
  %7 = alloca %struct.H5VL_loc_params_t, align 8
  %8 = alloca %struct.H5O_token_t, align 1
  %9 = alloca i64, align 8
  call void @llvm.memset.p0.i64(ptr noundef nonnull align 1 dereferenceable(16) %8, i8 0, i64 16, i1 false)
  store i64 0, ptr %9, align 8
  %10 = load i8, ptr @H5_libinit_g, align 1
  %11 = trunc i8 %10 to i1
  %12 = load i8, ptr @H5_libterm_g, align 1
  %13 = trunc i8 %12 to i1
  %14 = select i1 %11, i1 true, i1 %13
  br i1 %14, label %22, label %15

15:                                               ; preds = %5
  %16 = tail call i32 @H5_init_library() #6
  %17 = icmp slt i32 %16, 0
  br i1 %17, label %18, label %22

18:                                               ; preds = %15
  %19 = load i64, ptr @H5E_FUNC_g, align 8
  %20 = load i64, ptr @H5E_CANTINIT_g, align 8
  %21 = tail call i32 (ptr, ptr, i32, i64, i64, ptr, ...) @H5E_printf_stack(ptr noundef nonnull @.str, ptr noundef nonnull @__func__.H5Rget_name, i32 noundef 761, i64 noundef %19, i64 noundef %20, ptr noundef nonnull @.str.1) #6
  br label %.thread38

22:                                               ; preds = %15, %5
  %23 = tail call i32 @H5CX_push() #6
  %24 = icmp slt i32 %23, 0
  br i1 %24, label %25, label %29

25:                                               ; preds = %22
  %26 = load i64, ptr @H5E_FUNC_g, align 8
  %27 = load i64, ptr @H5E_CANTSET_g, align 8
  %28 = tail call i32 (ptr, ptr, i32, i64, i64, ptr, ...) @H5E_printf_stack(ptr noundef nonnull @.str, ptr noundef nonnull @__func__.H5Rget_name, i32 noundef 761, i64 noundef %26, i64 noundef %27, ptr noundef nonnull @.str.2) #6
  br label %.thread38

29:                                               ; preds = %22
  %30 = tail call i32 @H5E_clear_stack() #6
  %31 = icmp eq ptr %2, null
  br i1 %31, label %32, label %36

32:                                               ; preds = %29
  %33 = load i64, ptr @H5E_ARGS_g, align 8
  %34 = load i64, ptr @H5E_BADVALUE_g, align 8
  %35 = tail call i32 (ptr, ptr, i32, i64, i64, ptr, ...) @H5E_printf_stack(ptr noundef nonnull @.str, ptr noundef nonnull @__func__.H5Rget_name, i32 noundef 765, i64 noundef %33, i64 noundef %34, ptr noundef nonnull @.str.3) #6
  br label %.thread44

36:                                               ; preds = %29
  %or.cond = icmp ugt i32 %1, 1
  br i1 %or.cond, label %37, label %41

37:                                               ; preds = %36
  %38 = load i64, ptr @H5E_ARGS_g, align 8
  %39 = load i64, ptr @H5E_BADVALUE_g, align 8
  %40 = tail call i32 (ptr, ptr, i32, i64, i64, ptr, ...) @H5E_printf_stack(ptr noundef nonnull @.str, ptr noundef nonnull @__func__.H5Rget_name, i32 noundef 767, i64 noundef %38, i64 noundef %39, ptr noundef nonnull @.str.4) #6
  br label %.thread44

41:                                               ; preds = %36
  %42 = tail call ptr @H5VL_vol_object(i64 noundef %0) #6
  %43 = icmp eq ptr %42, null
  br i1 %43, label %44, label %48

44:                                               ; preds = %41
  %45 = load i64, ptr @H5E_ARGS_g, align 8
  %46 = load i64, ptr @H5E_BADTYPE_g, align 8
  %47 = tail call i32 (ptr, ptr, i32, i64, i64, ptr, ...) @H5E_printf_stack(ptr noundef nonnull @.str, ptr noundef nonnull @__func__.H5Rget_name, i32 noundef 771, i64 noundef %45, i64 noundef %46, ptr noundef nonnull @.str.28) #6
  br label %.thread44

48:                                               ; preds = %41
  %49 = tail call i32 @H5I_get_type(i64 noundef %0) #6
  %50 = icmp slt i32 %49, 0
  br i1 %50, label %51, label %55

51:                                               ; preds = %48
  %52 = load i64, ptr @H5E_ARGS_g, align 8
  %53 = load i64, ptr @H5E_BADTYPE_g, align 8
  %54 = tail call i32 (ptr, ptr, i32, i64, i64, ptr, ...) @H5E_printf_stack(ptr noundef nonnull @.str, ptr noundef nonnull @__func__.H5Rget_name, i32 noundef 775, i64 noundef %52, i64 noundef %53, ptr noundef nonnull @.str.5) #6
  br label %.thread44

55:                                               ; preds = %48
  %56 = call fastcc i32 @H5R__decode_token_compat(ptr noundef nonnull %42, i32 noundef %49, i32 noundef %1, ptr noundef nonnull %2, ptr noundef nonnull %8)
  %57 = icmp slt i32 %56, 0
  br i1 %57, label %58, label %62

58:                                               ; preds = %55
  %59 = load i64, ptr @H5E_REFERENCE_g, align 8
  %60 = load i64, ptr @H5E_CANTDECODE_g, align 8
  %61 = call i32 (ptr, ptr, i32, i64, i64, ptr, ...) @H5E_printf_stack(ptr noundef nonnull @.str, ptr noundef nonnull @__func__.H5Rget_name, i32 noundef 779, i64 noundef %59, i64 noundef %60, ptr noundef nonnull @.str.8) #6
  br label %.thread44

62:                                               ; preds = %55
  %63 = getelementptr inbounds i8, ptr %7, i64 4
  store i32 3, ptr %63, align 4
  %64 = getelementptr inbounds i8, ptr %7, i64 8
  store ptr %8, ptr %64, align 8
  store i32 %49, ptr %7, align 8
  store i32 1, ptr %6, align 8
  %65 = getelementptr inbounds i8, ptr %6, i64 8
  store i64 %4, ptr %65, align 8
  %66 = getelementptr inbounds i8, ptr %6, i64 16
  store ptr %3, ptr %66, align 8
  %67 = getelementptr inbounds i8, ptr %6, i64 24
  store ptr %9, ptr %67, align 8
  %68 = load i64, ptr @H5P_LST_DATASET_XFER_ID_g, align 8
  %69 = call i32 @H5VL_object_get(ptr noundef nonnull %42, ptr noundef nonnull %7, ptr noundef nonnull %6, i64 noundef %68, ptr noundef null) #6
  %70 = icmp slt i32 %69, 0
  br i1 %70, label %71, label %76

71:                                               ; preds = %62
  %72 = load i64, ptr @H5E_REFERENCE_g, align 8
  %73 = load i64, ptr @H5E_CANTGET_g, align 8
  %74 = call i32 (ptr, ptr, i32, i64, i64, ptr, ...) @H5E_printf_stack(ptr noundef nonnull @.str, ptr noundef nonnull @__func__.H5Rget_name, i32 noundef 794, i64 noundef %72, i64 noundef %73, ptr noundef nonnull @.str.33) #6
  br label %.thread44

.thread44:                                        ; preds = %71, %58, %51, %44, %37, %32
  %75 = call i32 @H5CX_pop(i1 noundef zeroext true) #6
  br label %.thread38

76:                                               ; preds = %62
  %77 = load i64, ptr %9, align 8
  %78 = call i32 @H5CX_pop(i1 noundef zeroext true) #6
  br label %80

.thread38:                                        ; preds = %25, %18, %.thread44
  %79 = call i32 @H5E_dump_api_stack() #6
  br label %80

80:                                               ; preds = %76, %.thread38
  %.0263341 = phi i64 [ -1, %.thread38 ], [ %77, %76 ]
  ret i64 %.0263341
}